target datalayout = "e-m:e-p270:32:32-p271:32:32-p272:64:64-i64:64-i128:128-f80:128-n8:16:32:64-S128"
target triple = "x86_64-pc-linux-gnu"

%struct.RBasic = type { i64, i64 }
%struct.ibf_dump = type { ptr, %struct.ibf_dump_buffer, ptr }
%struct.ibf_dump_buffer = type { i64, ptr }
%struct.RString = type { %struct.RBasic, i64, %union.anon.39 }
%union.anon.39 = type { %struct.anon.40 }
%struct.anon.40 = type { ptr, %union.anon.41 }
%union.anon.41 = type { i64 }

@rb_eRuntimeError = external global i64, align 8
@ibf_dump_align.padding = internal constant [8 x i8] zeroinitializer, align 1
@.str.226 = private unnamed_addr constant [18 x i8] c"dump size exceeds\00", align 1

; Function Attrs: inlinehint nounwind sspstrong willreturn memory(read) uwtable
define internal i64 @RSTRING_LEN(i64 noundef %0) #8 {
  %2 = alloca i64, align 8
  store i64 %0, ptr %2, align 8, !tbaa !7
  %3 = load i64, ptr %2, align 8, !tbaa !7
  %4 = inttoptr i64 %3 to ptr
  %5 = getelementptr inbounds nuw %struct.RString, ptr %4, i32 0, i32 1
  %6 = load i64, ptr %5, align 8, !tbaa !771
  ret i64 %6
}

; Function Attrs: nounwind sspstrong uwtable
define internal i32 @ibf_dump_pos(ptr noundef %0) #0 {
  %2 = alloca ptr, align 8
  %3 = alloca i64, align 8
  store ptr %0, ptr %2, align 8, !tbaa !221
  call void @llvm.lifetime.start.p0(i64 8, ptr %3) #31
  %4 = load ptr, ptr %2, align 8, !tbaa !221
  %5 = getelementptr inbounds nuw %struct.ibf_dump, ptr %4, i32 0, i32 2
  %6 = load ptr, ptr %5, align 8, !tbaa !237
  %7 = getelementptr inbounds nuw %struct.ibf_dump_buffer, ptr %6, i32 0, i32 0
  %8 = load i64, ptr %7, align 8, !tbaa !238
  %9 = call i64 @RSTRING_LEN(i64 noundef %8) #35
  store i64 %9, ptr %3, align 8, !tbaa !7
  %10 = load i64, ptr %3, align 8, !tbaa !7
  %11 = icmp sge i64 %10, 4294967295
  br i1 %11, label %12, label %14

12:                                               ; preds = %1
  %13 = load i64, ptr @rb_eRuntimeError, align 8, !tbaa !7
  call void (i64, ptr, ...) @rb_raise(i64 noundef %13, ptr noundef @.str.226) #36
  unreachable

14:                                               ; preds = %1
  %15 = load i64, ptr %3, align 8, !tbaa !7
  %16 = trunc i64 %15 to i32
  call void @llvm.lifetime.end.p0(i64 8, ptr %3) #31
  ret i32 %16
}

; Function Attrs: nounwind sspstrong uwtable
define internal void @ibf_dump_align(ptr noundef %0, i64 noundef %1) #0 {
  %3 = alloca ptr, align 8
  %4 = alloca i64, align 8
  %5 = alloca i32, align 4
  %6 = alloca i64, align 8
  store ptr %0, ptr %3, align 8, !tbaa !221
  store i64 %1, ptr %4, align 8, !tbaa !7
  call void @llvm.lifetime.start.p0(i64 4, ptr %5) #31
  %7 = load ptr, ptr %3, align 8, !tbaa !221
  %8 = call i32 @ibf_dump_pos(ptr noundef %7)
  store i32 %8, ptr %5, align 4, !tbaa !41
  %9 = load i32, ptr %5, align 4, !tbaa !41
  %10 = zext i32 %9 to i64
  %11 = load i64, ptr %4, align 8, !tbaa !7
  %12 = urem i64 %10, %11
  %13 = icmp ne i64 %12, 0
  br i1 %13, label %14, label %50

14:                                               ; preds = %2
  call void @llvm.lifetime.start.p0(i64 8, ptr %6) #31
  %15 = load i64, ptr %4, align 8, !tbaa !7
  %16 = load i32, ptr %5, align 4, !tbaa !41
  %17 = zext i32 %16 to i64
  %18 = load i64, ptr %4, align 8, !tbaa !7
  %19 = urem i64 %17, %18
  %20 = sub i64 %15, %19
  store i64 %20, ptr %6, align 8, !tbaa !7
  %21 = load i32, ptr %5, align 4, !tbaa !41
  %22 = zext i32 %21 to i64
  %23 = load i64, ptr %6, align 8, !tbaa !7
  %24 = add i64 %22, %23
  %25 = icmp uge i64 %24, 4294967295
  br i1 %25, label %26, label %28

26:                                               ; preds = %14
  %27 = load i64, ptr @rb_eRuntimeError, align 8, !tbaa !7
  call void (i64, ptr, ...) @rb_raise(i64 noundef %27, ptr noundef @.str.226) #36
  unreachable

28:                                               ; preds = %14
  br label %29

29:                                               ; preds = %39, %28
  %30 = load i64, ptr %6, align 8, !tbaa !7
  %31 = icmp ugt i64 %30, 8
  br i1 %31, label %32, label %42

32:                                               ; preds = %29
  %33 = load ptr, ptr %3, align 8, !tbaa !221
  %34 = getelementptr inbounds nuw %struct.ibf_dump, ptr %33, i32 0, i32 2
  %35 = load ptr, ptr %34, align 8, !tbaa !237
  %36 = getelementptr inbounds nuw %struct.ibf_dump_buffer, ptr %35, i32 0, i32 0
  %37 = load i64, ptr %36, align 8, !tbaa !238
  %38 = call i64 @rb_str_cat(i64 noundef %37, ptr noundef @ibf_dump_align.padding, i64 noundef 8)
  br label %39

39:                                               ; preds = %32
  %40 = load i64, ptr %6, align 8, !tbaa !7
  %41 = sub i64 %40, 8
  store i64 %41, ptr %6, align 8, !tbaa !7
  br label %29, !llvm.loop !1304

42:                                               ; preds = %29
  %43 = load ptr, ptr %3, align 8, !tbaa !221
  %44 = getelementptr inbounds nuw %struct.ibf_dump, ptr %43, i32 0, i32 2
  %45 = load ptr, ptr %44, align 8, !tbaa !237
  %46 = getelementptr inbounds nuw %struct.ibf_dump_buffer, ptr %45, i32 0, i32 0
  %47 = load i64, ptr %46, align 8, !tbaa !238
  %48 = load i64, ptr %6, align 8, !tbaa !7
  %49 = call i64 @rb_str_cat(i64 noundef %47, ptr noundef @ibf_dump_align.padding, i64 noundef %48)
  call void @llvm.lifetime.end.p0(i64 8, ptr %6) #31
  br label %50

50:                                               ; preds = %42, %2
  call void @llvm.lifetime.end.p0(i64 4, ptr %5) #31
  ret void
}