; Function Attrs: nounwind sspstrong uwtable
define internal fastcc void @ibf_dump_align(ptr noundef readonly captures(none) %0, i64 noundef range(i64 4, 9) %1) unnamed_addr #1 {
  %3 = getelementptr i8, ptr %0, i64 24
  %.val = load ptr, ptr %3, align 8, !tbaa !307
  %.val.val = load i64, ptr %.val, align 8, !tbaa !308
  %4 = inttoptr i64 %.val.val to ptr
  %5 = getelementptr inbounds nuw i8, ptr %4, i64 16
  %6 = load i64, ptr %5, align 8, !tbaa !309
  %7 = icmp sgt i64 %6, 4294967294
  br i1 %7, label %8, label %ibf_dump_pos.exit

8:                                                ; preds = %2
  %9 = load i64, ptr @rb_eRuntimeError, align 8, !tbaa !37
  tail call void (i64, ptr, ...) @rb_raise(i64 noundef %9, ptr noundef nonnull @.str.226) #42
  unreachable

ibf_dump_pos.exit:                                ; preds = %2
  %.lhs.trunc = trunc i64 %6 to i32
  %.rhs.trunc = trunc nuw nsw i64 %1 to i32
  %10 = urem i32 %.lhs.trunc, %.rhs.trunc
  %.not = icmp eq i32 %10, 0
  br i1 %.not, label %26, label %11

11:                                               ; preds = %ibf_dump_pos.exit
  %.zext = zext nneg i32 %10 to i64
  %12 = and i64 %6, 4294967295
  %13 = sub nsw i64 %1, %.zext
  %14 = add nsw i64 %13, %12
  %15 = icmp ugt i64 %14, 4294967294
  br i1 %15, label %17, label %.preheader

.preheader:                                       ; preds = %11
  %16 = icmp ugt i64 %13, 8
  br i1 %16, label %.lr.ph, label %._crit_edge

17:                                               ; preds = %11
  %18 = load i64, ptr @rb_eRuntimeError, align 8, !tbaa !37
  tail call void (i64, ptr, ...) @rb_raise(i64 noundef %18, ptr noundef nonnull @.str.226) #42
  unreachable

.lr.ph:                                           ; preds = %.preheader, %.lr.ph
  %.013 = phi i64 [ %22, %.lr.ph ], [ %13, %.preheader ]
  %19 = load ptr, ptr %3, align 8, !tbaa !307
  %20 = load i64, ptr %19, align 8, !tbaa !308
  %21 = tail call i64 @rb_str_cat(i64 noundef %20, ptr noundef nonnull @ibf_dump_align.padding, i64 noundef 8) #38
  %22 = add i64 %.013, -8
  %23 = icmp ugt i64 %22, 8
  br i1 %23, label %.lr.ph, label %._crit_edge.loopexit, !llvm.loop !1093

._crit_edge.loopexit:                             ; preds = %.lr.ph
  %.pre = load ptr, ptr %3, align 8, !tbaa !307
  %.pre14 = load i64, ptr %.pre, align 8, !tbaa !308
  br label %._crit_edge

._crit_edge:                                      ; preds = %._crit_edge.loopexit, %.preheader
  %24 = phi i64 [ %.val.val, %.preheader ], [ %.pre14, %._crit_edge.loopexit ]
  %.0.lcssa = phi i64 [ %13, %.preheader ], [ %22, %._crit_edge.loopexit ]
  %25 = tail call i64 @rb_str_cat(i64 noundef %24, ptr noundef nonnull @ibf_dump_align.padding, i64 noundef %.0.lcssa) #38
  br label %26

26:                                               ; preds = %._crit_edge, %ibf_dump_pos.exit
  ret void
}